; Function Attrs: mustprogress uwtable
define dso_local void @_ZNSt3__14__fs10filesystem7__spaceERKNS1_4pathEPNS_10error_codeE(ptr dead_on_unwind noalias writable writeonly sret(%"struct.std::__1::__fs::filesystem::space_info") align 8 captures(none) initializes((0, 24)) %0, ptr noundef nonnull align 8 dereferenceable(24) %1, ptr noundef %2) local_unnamed_addr #0 {
  %4 = alloca %"struct.std::__1::__fs::filesystem::detail::ErrorHandler.1", align 8
  %5 = alloca %struct.statvfs, align 8
  %6 = alloca %"class.std::__1::error_code", align 8
  call void @llvm.lifetime.start.p0(i64 32, ptr nonnull %4) #28
  store ptr @.str.22, ptr %4, align 8, !tbaa !32
  %7 = getelementptr inbounds nuw i8, ptr %4, i64 8
  store ptr %2, ptr %7, align 8, !tbaa !34
  %8 = getelementptr inbounds nuw i8, ptr %4, i64 16
  store ptr %1, ptr %8, align 8, !tbaa !35
  %9 = getelementptr inbounds nuw i8, ptr %4, i64 24
  store ptr null, ptr %9, align 8, !tbaa !36
  %.not.i = icmp eq ptr %2, null
  br i1 %.not.i, label %_ZNSt3__14__fs10filesystem6detail12ErrorHandlerIvEC2B8ne210000EPKcPNS_10error_codeEPKNS1_4pathESB_.exit, label %10

10:                                               ; preds = %3
  store i32 0, ptr %2, align 8, !tbaa !8
  %11 = tail call noundef nonnull align 8 dereferenceable(8) ptr @_ZNSt3__115system_categoryEv() #30
  %12 = getelementptr inbounds nuw i8, ptr %2, i64 8
  store ptr %11, ptr %12, align 8, !tbaa !13
  br label %_ZNSt3__14__fs10filesystem6detail12ErrorHandlerIvEC2B8ne210000EPKcPNS_10error_codeEPKNS1_4pathESB_.exit

_ZNSt3__14__fs10filesystem6detail12ErrorHandlerIvEC2B8ne210000EPKcPNS_10error_codeEPKNS1_4pathESB_.exit: ; preds = %3, %10
  call void @llvm.lifetime.start.p0(i64 112, ptr nonnull %5) #28
  call void @llvm.memset.p0.i64(ptr noundef nonnull align 8 dereferenceable(112) %5, i8 0, i64 112, i1 false)
  %13 = load i8, ptr %1, align 8
  %14 = and i8 %13, 1
  %.not.i.i.i.i = icmp eq i8 %14, 0
  %15 = getelementptr inbounds nuw i8, ptr %1, i64 16
  %16 = load ptr, ptr %15, align 8
  %17 = getelementptr inbounds nuw i8, ptr %1, i64 1
  %18 = select i1 %.not.i.i.i.i, ptr %17, ptr %16
  %19 = call i32 @statvfs(ptr noundef %18, ptr noundef nonnull %5) #28
  %20 = icmp eq i32 %19, -1
  br i1 %20, label %21, label %26

21:                                               ; preds = %_ZNSt3__14__fs10filesystem6detail12ErrorHandlerIvEC2B8ne210000EPKcPNS_10error_codeEPKNS1_4pathESB_.exit
  call void @llvm.lifetime.start.p0(i64 16, ptr nonnull %6) #28
  %22 = tail call ptr @__errno_location() #30
  %23 = load i32, ptr %22, align 4, !tbaa !26
  %24 = tail call noundef nonnull align 8 dereferenceable(8) ptr @_ZNSt3__116generic_categoryEv() #30
  store i32 %23, ptr %6, align 8
  %25 = getelementptr inbounds nuw i8, ptr %6, i64 8
  store ptr %24, ptr %25, align 8
  call void @_ZNKSt3__14__fs10filesystem6detail12ErrorHandlerIvE6reportB8ne210000ERKNS_10error_codeE(ptr noundef nonnull align 8 dereferenceable(32) %4, ptr noundef nonnull align 8 dereferenceable(16) %6)
  call void @llvm.lifetime.end.p0(i64 16, ptr nonnull %6) #28
  call void @llvm.memset.p0.i64(ptr noundef nonnull align 8 dereferenceable(24) %0, i8 -1, i64 24, i1 false)
  br label %"_ZZNSt3__14__fs10filesystem7__spaceERKNS1_4pathEPNS_10error_codeEENK3$_0clERmm.exit9"

26:                                               ; preds = %_ZNSt3__14__fs10filesystem6detail12ErrorHandlerIvEC2B8ne210000EPKcPNS_10error_codeEPKNS1_4pathESB_.exit
  %27 = getelementptr inbounds nuw i8, ptr %5, i64 16
  %28 = load i64, ptr %27, align 8, !tbaa !229
  %29 = getelementptr inbounds nuw i8, ptr %5, i64 8
  %30 = load i64, ptr %29, align 8, !tbaa !231
  %mul = tail call { i64, i1 } @llvm.umul.with.overflow.i64(i64 %28, i64 %30)
  %mul.val = extractvalue { i64, i1 } %mul, 0
  store i64 %mul.val, ptr %0, align 8, !tbaa !72
  %31 = icmp eq i64 %28, 0
  br i1 %31, label %33, label %32

32:                                               ; preds = %26
  %mul.ov = extractvalue { i64, i1 } %mul, 1
  br i1 %mul.ov, label %33, label %"_ZZNSt3__14__fs10filesystem7__spaceERKNS1_4pathEPNS_10error_codeEENK3$_0clERmm.exit"

33:                                               ; preds = %32, %26
  store i64 -1, ptr %0, align 8, !tbaa !72
  br label %"_ZZNSt3__14__fs10filesystem7__spaceERKNS1_4pathEPNS_10error_codeEENK3$_0clERmm.exit"

"_ZZNSt3__14__fs10filesystem7__spaceERKNS1_4pathEPNS_10error_codeEENK3$_0clERmm.exit": ; preds = %32, %33
  %34 = getelementptr inbounds nuw i8, ptr %0, i64 8
  %35 = getelementptr inbounds nuw i8, ptr %5, i64 24
  %36 = load i64, ptr %35, align 8, !tbaa !232
  %mul10 = tail call { i64, i1 } @llvm.umul.with.overflow.i64(i64 %36, i64 %30)
  %mul.val11 = extractvalue { i64, i1 } %mul10, 0
  store i64 %mul.val11, ptr %34, align 8, !tbaa !72
  %37 = icmp eq i64 %36, 0
  br i1 %37, label %39, label %38

38:                                               ; preds = %"_ZZNSt3__14__fs10filesystem7__spaceERKNS1_4pathEPNS_10error_codeEENK3$_0clERmm.exit"
  %mul.ov12 = extractvalue { i64, i1 } %mul10, 1
  br i1 %mul.ov12, label %39, label %"_ZZNSt3__14__fs10filesystem7__spaceERKNS1_4pathEPNS_10error_codeEENK3$_0clERmm.exit7"

39:                                               ; preds = %38, %"_ZZNSt3__14__fs10filesystem7__spaceERKNS1_4pathEPNS_10error_codeEENK3$_0clERmm.exit"
  store i64 -1, ptr %34, align 8, !tbaa !72
  br label %"_ZZNSt3__14__fs10filesystem7__spaceERKNS1_4pathEPNS_10error_codeEENK3$_0clERmm.exit7"

"_ZZNSt3__14__fs10filesystem7__spaceERKNS1_4pathEPNS_10error_codeEENK3$_0clERmm.exit7": ; preds = %38, %39
  %40 = getelementptr inbounds nuw i8, ptr %0, i64 16
  %41 = getelementptr inbounds nuw i8, ptr %5, i64 32
  %42 = load i64, ptr %41, align 8, !tbaa !233
  %mul13 = tail call { i64, i1 } @llvm.umul.with.overflow.i64(i64 %42, i64 %30)
  %mul.val14 = extractvalue { i64, i1 } %mul13, 0
  store i64 %mul.val14, ptr %40, align 8, !tbaa !72
  %43 = icmp eq i64 %42, 0
  br i1 %43, label %45, label %44

44:                                               ; preds = %"_ZZNSt3__14__fs10filesystem7__spaceERKNS1_4pathEPNS_10error_codeEENK3$_0clERmm.exit7"
  %mul.ov15 = extractvalue { i64, i1 } %mul13, 1
  br i1 %mul.ov15, label %45, label %"_ZZNSt3__14__fs10filesystem7__spaceERKNS1_4pathEPNS_10error_codeEENK3$_0clERmm.exit9"

45:                                               ; preds = %44, %"_ZZNSt3__14__fs10filesystem7__spaceERKNS1_4pathEPNS_10error_codeEENK3$_0clERmm.exit7"
  store i64 -1, ptr %40, align 8, !tbaa !72
  br label %"_ZZNSt3__14__fs10filesystem7__spaceERKNS1_4pathEPNS_10error_codeEENK3$_0clERmm.exit9"

"_ZZNSt3__14__fs10filesystem7__spaceERKNS1_4pathEPNS_10error_codeEENK3$_0clERmm.exit9": ; preds = %45, %44, %21
  call void @llvm.lifetime.end.p0(i64 112, ptr nonnull %5) #28
  call void @llvm.lifetime.end.p0(i64 32, ptr nonnull %4) #28
  ret void
}